target datalayout = "e-m:e-p270:32:32-p271:32:32-p272:64:64-i64:64-i128:128-f80:128-n8:16:32:64-S128"
target triple = "x86_64-pc-linux-gnu"

%struct._object = type { %union.anon, ptr }
%union.anon = type { i64 }
%struct.Py_buffer = type { ptr, ptr, i64, i64, i32, i32, ptr, ptr, ptr, ptr, ptr }
%struct.PySocketSockObject = type { %struct._object, i32, i32, i32, i32, ptr, i64, ptr }
%struct.sock_send = type { ptr, i64, i32, i64 }

@.str.618 = private unnamed_addr constant [10 x i8] c"y*|i:send\00", align 1

; Function Attrs: nounwind uwtable
define internal i32 @sock_call(ptr noundef %0, i32 noundef %1, ptr noundef %2, ptr noundef %3) #0 {
  %5 = alloca ptr, align 8
  %6 = alloca i32, align 4
  %7 = alloca ptr, align 8
  %8 = alloca ptr, align 8
  store ptr %0, ptr %5, align 8, !tbaa !8
  store i32 %1, ptr %6, align 4, !tbaa !15
  store ptr %2, ptr %7, align 8, !tbaa !8
  store ptr %3, ptr %8, align 8, !tbaa !8
  %9 = load ptr, ptr %5, align 8, !tbaa !8
  %10 = load i32, ptr %6, align 4, !tbaa !15
  %11 = load ptr, ptr %7, align 8, !tbaa !8
  %12 = load ptr, ptr %8, align 8, !tbaa !8
  %13 = load ptr, ptr %5, align 8, !tbaa !8
  %14 = getelementptr inbounds nuw %struct.PySocketSockObject, ptr %13, i32 0, i32 6
  %15 = load i64, ptr %14, align 8, !tbaa !111
  %16 = call i32 @sock_call_ex(ptr noundef %9, i32 noundef %10, ptr noundef %11, ptr noundef %12, i32 noundef 0, ptr noundef null, i64 noundef %15)
  ret i32 %16
}

; Function Attrs: nounwind uwtable
define internal ptr @sock_send(ptr noundef %0, ptr noundef %1) #0 {
  %3 = alloca ptr, align 8
  %4 = alloca ptr, align 8
  %5 = alloca ptr, align 8
  %6 = alloca ptr, align 8
  %7 = alloca i32, align 4
  %8 = alloca %struct.Py_buffer, align 8
  %9 = alloca %struct.sock_send, align 8
  %10 = alloca i32, align 4
  store ptr %0, ptr %4, align 8, !tbaa !3
  store ptr %1, ptr %5, align 8, !tbaa !3
  call void @llvm.lifetime.start.p0(i64 8, ptr %6) #10
  %11 = load ptr, ptr %4, align 8, !tbaa !3
  store ptr %11, ptr %6, align 8, !tbaa !8
  call void @llvm.lifetime.start.p0(i64 4, ptr %7) #10
  store i32 0, ptr %7, align 4, !tbaa !15
  call void @llvm.lifetime.start.p0(i64 80, ptr %8) #10
  call void @llvm.lifetime.start.p0(i64 32, ptr %9) #10
  %12 = load ptr, ptr %5, align 8, !tbaa !3
  %13 = call i32 (ptr, ptr, ...) @PyArg_ParseTuple(ptr noundef %12, ptr noundef @.str.618, ptr noundef %8, ptr noundef %7)
  %14 = icmp ne i32 %13, 0
  br i1 %14, label %16, label %15

15:                                               ; preds = %2
  store ptr null, ptr %3, align 8
  store i32 1, ptr %10, align 4
  br label %33

16:                                               ; preds = %2
  %17 = getelementptr inbounds nuw %struct.Py_buffer, ptr %8, i32 0, i32 0
  %18 = load ptr, ptr %17, align 8, !tbaa !36
  %19 = getelementptr inbounds nuw %struct.sock_send, ptr %9, i32 0, i32 0
  store ptr %18, ptr %19, align 8, !tbaa !184
  %20 = getelementptr inbounds nuw %struct.Py_buffer, ptr %8, i32 0, i32 2
  %21 = load i64, ptr %20, align 8, !tbaa !39
  %22 = getelementptr inbounds nuw %struct.sock_send, ptr %9, i32 0, i32 1
  store i64 %21, ptr %22, align 8, !tbaa !186
  %23 = load i32, ptr %7, align 4, !tbaa !15
  %24 = getelementptr inbounds nuw %struct.sock_send, ptr %9, i32 0, i32 2
  store i32 %23, ptr %24, align 8, !tbaa !187
  %25 = load ptr, ptr %6, align 8, !tbaa !8
  %26 = call i32 @sock_call(ptr noundef %25, i32 noundef 1, ptr noundef @sock_send_impl, ptr noundef %9)
  %27 = icmp slt i32 %26, 0
  br i1 %27, label %28, label %29

28:                                               ; preds = %16
  call void @PyBuffer_Release(ptr noundef %8)
  store ptr null, ptr %3, align 8
  store i32 1, ptr %10, align 4
  br label %33

29:                                               ; preds = %16
  call void @PyBuffer_Release(ptr noundef %8)
  %30 = getelementptr inbounds nuw %struct.sock_send, ptr %9, i32 0, i32 3
  %31 = load i64, ptr %30, align 8, !tbaa !188
  %32 = call ptr @PyLong_FromSsize_t(i64 noundef %31)
  store ptr %32, ptr %3, align 8
  store i32 1, ptr %10, align 4
  br label %33

33:                                               ; preds = %29, %28, %15
  call void @llvm.lifetime.end.p0(i64 32, ptr %9) #10
  call void @llvm.lifetime.end.p0(i64 80, ptr %8) #10
  call void @llvm.lifetime.end.p0(i64 4, ptr %7) #10
  call void @llvm.lifetime.end.p0(i64 8, ptr %6) #10
  %34 = load ptr, ptr %3, align 8
  ret ptr %34
}