; Function Attrs: nounwind uwtable
define internal ptr @sock_send(ptr noundef %0, ptr noundef %1) #0 {
  %3 = alloca i32, align 4
  %4 = alloca %struct.Py_buffer, align 8
  %5 = alloca %struct.sock_send, align 8
  call void @llvm.lifetime.start.p0(i64 4, ptr nonnull %3) #13
  store i32 0, ptr %3, align 4, !tbaa !35
  call void @llvm.lifetime.start.p0(i64 80, ptr nonnull %4) #13
  call void @llvm.lifetime.start.p0(i64 32, ptr nonnull %5) #13
  %6 = call i32 (ptr, ptr, ...) @PyArg_ParseTuple(ptr noundef %1, ptr noundef nonnull @.str.618, ptr noundef nonnull %4, ptr noundef nonnull %3) #13
  %.not = icmp eq i32 %6, 0
  br i1 %.not, label %22, label %7

7:                                                ; preds = %2
  %8 = load ptr, ptr %4, align 8, !tbaa !27
  store ptr %8, ptr %5, align 8, !tbaa !151
  %9 = getelementptr inbounds nuw i8, ptr %4, i64 16
  %10 = load i64, ptr %9, align 8, !tbaa !31
  %11 = getelementptr inbounds nuw i8, ptr %5, i64 8
  store i64 %10, ptr %11, align 8, !tbaa !153
  %12 = load i32, ptr %3, align 4, !tbaa !35
  %13 = getelementptr inbounds nuw i8, ptr %5, i64 16
  store i32 %12, ptr %13, align 8, !tbaa !154
  %14 = getelementptr inbounds nuw i8, ptr %0, i64 40
  %15 = load i64, ptr %14, align 8, !tbaa !90
  %16 = call fastcc range(i32 -1, 1) i32 @sock_call_ex(ptr noundef %0, i32 noundef 1, ptr noundef nonnull @sock_send_impl, ptr noundef nonnull %5, i32 noundef 0, ptr noundef null, i64 noundef %15)
  %17 = icmp slt i32 %16, 0
  call void @PyBuffer_Release(ptr noundef nonnull %4) #13
  br i1 %17, label %22, label %18

18:                                               ; preds = %7
  %19 = getelementptr inbounds nuw i8, ptr %5, i64 24
  %20 = load i64, ptr %19, align 8, !tbaa !155
  %21 = call ptr @PyLong_FromSsize_t(i64 noundef %20) #13
  br label %22

22:                                               ; preds = %7, %2, %18
  %.0 = phi ptr [ %21, %18 ], [ null, %2 ], [ null, %7 ]
  call void @llvm.lifetime.end.p0(i64 32, ptr nonnull %5) #13
  call void @llvm.lifetime.end.p0(i64 80, ptr nonnull %4) #13
  call void @llvm.lifetime.end.p0(i64 4, ptr nonnull %3) #13
  ret ptr %.0
}